target datalayout = "e-m:e-p270:32:32-p271:32:32-p272:64:64-i64:64-i128:128-f80:128-n8:16:32:64-S128"
target triple = "x86_64-pc-linux-gnu"

%class.CodeHeap = type { %class.VirtualSpace, %class.VirtualSpace, i64, i64, i64, i32, i64, ptr, ptr, i64, i32, i64, ptr, i32, i32, i32, i32, i32, i32 }
%class.VirtualSpace = type { ptr, ptr, ptr, ptr, i8, i8, ptr, ptr, ptr, ptr, ptr, ptr, i64, i64, i64 }

; Function Attrs: mustprogress nounwind uwtable
define linkonce_odr hidden noundef i32 @_ZNK8CodeHeap14code_blob_typeEv(ptr noundef nonnull align 8 dereferenceable(336) %0) #1 comdat align 2 {
  %2 = alloca ptr, align 8
  store ptr %0, ptr %2, align 8
  %3 = load ptr, ptr %2, align 8
  %4 = getelementptr inbounds %class.CodeHeap, ptr %3, i32 0, i32 13
  %5 = load i32, ptr %4, align 8
  ret i32 %5
}

; Function Attrs: mustprogress nounwind uwtable
define hidden noundef i32 @_ZN9CodeCache17code_heap_compareERKP8CodeHeapS3_(ptr noundef nonnull align 8 dereferenceable(8) %0, ptr noundef nonnull align 8 dereferenceable(8) %1) #1 align 2 {
  %3 = alloca i32, align 4
  %4 = alloca ptr, align 8
  %5 = alloca ptr, align 8
  store ptr %0, ptr %4, align 8
  store ptr %1, ptr %5, align 8
  %6 = load ptr, ptr %4, align 8
  %7 = load ptr, ptr %6, align 8
  %8 = call noundef i32 @_ZNK8CodeHeap14code_blob_typeEv(ptr noundef nonnull align 8 dereferenceable(336) %7)
  %9 = load ptr, ptr %5, align 8
  %10 = load ptr, ptr %9, align 8
  %11 = call noundef i32 @_ZNK8CodeHeap14code_blob_typeEv(ptr noundef nonnull align 8 dereferenceable(336) %10)
  %12 = icmp eq i32 %8, %11
  br i1 %12, label %13, label %29

13:                                               ; preds = %2
  %14 = load ptr, ptr %4, align 8
  %15 = load ptr, ptr %14, align 8
  %16 = load ptr, ptr %5, align 8
  %17 = load ptr, ptr %16, align 8
  %18 = icmp ugt ptr %15, %17
  br i1 %18, label %19, label %20

19:                                               ; preds = %13
  br label %27

20:                                               ; preds = %13
  %21 = load ptr, ptr %4, align 8
  %22 = load ptr, ptr %21, align 8
  %23 = load ptr, ptr %5, align 8
  %24 = load ptr, ptr %23, align 8
  %25 = icmp ult ptr %22, %24
  %26 = select i1 %25, i32 -1, i32 0
  br label %27

27:                                               ; preds = %20, %19
  %28 = phi i32 [ 1, %19 ], [ %26, %20 ]
  store i32 %28, ptr %3, align 4
  br label %37

29:                                               ; preds = %2
  %30 = load ptr, ptr %4, align 8
  %31 = load ptr, ptr %30, align 8
  %32 = call noundef i32 @_ZNK8CodeHeap14code_blob_typeEv(ptr noundef nonnull align 8 dereferenceable(336) %31)
  %33 = load ptr, ptr %5, align 8
  %34 = load ptr, ptr %33, align 8
  %35 = call noundef i32 @_ZNK8CodeHeap14code_blob_typeEv(ptr noundef nonnull align 8 dereferenceable(336) %34)
  %36 = sub nsw i32 %32, %35
  store i32 %36, ptr %3, align 4
  br label %37

37:                                               ; preds = %29, %27
  %38 = load i32, ptr %3, align 4
  ret i32 %38
}