; Function Attrs: mustprogress nofree norecurse nosync nounwind willreturn memory(read, inaccessiblemem: none) uwtable
define hidden noundef i32 @_ZN9CodeCache17code_heap_compareERKP8CodeHeapS3_(ptr nocapture noundef nonnull readonly align 8 dereferenceable(8) %0, ptr nocapture noundef nonnull readonly align 8 dereferenceable(8) %1) local_unnamed_addr #5 align 2 {
  %3 = load ptr, ptr %0, align 8
  %4 = getelementptr inbounds i8, ptr %3, i64 312
  %5 = load i32, ptr %4, align 8
  %6 = load ptr, ptr %1, align 8
  %7 = getelementptr inbounds i8, ptr %6, i64 312
  %8 = load i32, ptr %7, align 8
  %9 = icmp eq i32 %5, %8
  br i1 %9, label %10, label %15

10:                                               ; preds = %2
  %11 = icmp ugt ptr %3, %6
  %12 = icmp ult ptr %3, %6
  %13 = sext i1 %12 to i32
  %14 = select i1 %11, i32 1, i32 %13
  br label %17

15:                                               ; preds = %2
  %16 = sub nsw i32 %5, %8
  br label %17

17:                                               ; preds = %15, %10
  %.0 = phi i32 [ %14, %10 ], [ %16, %15 ]
  ret i32 %.0
}